target datalayout = "e-m:e-p270:32:32-p271:32:32-p272:64:64-i64:64-i128:128-f80:128-n8:16:32:64-S128"
target triple = "x86_64-pc-linux-gnu"

%"class.pxrInternal_v0_24__pxrReserved__::GfRay" = type { %"class.pxrInternal_v0_24__pxrReserved__::GfVec3d", %"class.pxrInternal_v0_24__pxrReserved__::GfVec3d" }
%"class.pxrInternal_v0_24__pxrReserved__::GfVec3d" = type { [3 x double] }
%"class.pxrInternal_v0_24__pxrReserved__::GfLine" = type { %"class.pxrInternal_v0_24__pxrReserved__::GfVec3d", %"class.pxrInternal_v0_24__pxrReserved__::GfVec3d" }

; Function Attrs: mustprogress uwtable
define linkonce_odr noundef double @_ZNK32pxrInternal_v0_24__pxrReserved__7GfVec3dmlERKS0_(ptr noundef nonnull align 8 dereferenceable(24) %0, ptr noundef nonnull align 8 dereferenceable(24) %1) #0 comdat align 2 {
  %3 = alloca ptr, align 8
  %4 = alloca ptr, align 8
  store ptr %0, ptr %3, align 8
  store ptr %1, ptr %4, align 8
  %5 = load ptr, ptr %3, align 8
  %6 = getelementptr inbounds nuw %"class.pxrInternal_v0_24__pxrReserved__::GfVec3d", ptr %5, i32 0, i32 0
  %7 = getelementptr inbounds [3 x double], ptr %6, i64 0, i64 0
  %8 = load double, ptr %7, align 8
  %9 = load ptr, ptr %4, align 8
  %10 = call noundef nonnull align 8 dereferenceable(8) ptr @_ZNK32pxrInternal_v0_24__pxrReserved__7GfVec3dixEm(ptr noundef nonnull align 8 dereferenceable(24) %9, i64 noundef 0)
  %11 = load double, ptr %10, align 8
  %12 = getelementptr inbounds nuw %"class.pxrInternal_v0_24__pxrReserved__::GfVec3d", ptr %5, i32 0, i32 0
  %13 = getelementptr inbounds [3 x double], ptr %12, i64 0, i64 1
  %14 = load double, ptr %13, align 8
  %15 = load ptr, ptr %4, align 8
  %16 = call noundef nonnull align 8 dereferenceable(8) ptr @_ZNK32pxrInternal_v0_24__pxrReserved__7GfVec3dixEm(ptr noundef nonnull align 8 dereferenceable(24) %15, i64 noundef 1)
  %17 = load double, ptr %16, align 8
  %18 = fmul double %14, %17
  %19 = call double @llvm.fmuladd.f64(double %8, double %11, double %18)
  %20 = getelementptr inbounds nuw %"class.pxrInternal_v0_24__pxrReserved__::GfVec3d", ptr %5, i32 0, i32 0
  %21 = getelementptr inbounds [3 x double], ptr %20, i64 0, i64 2
  %22 = load double, ptr %21, align 8
  %23 = load ptr, ptr %4, align 8
  %24 = call noundef nonnull align 8 dereferenceable(8) ptr @_ZNK32pxrInternal_v0_24__pxrReserved__7GfVec3dixEm(ptr noundef nonnull align 8 dereferenceable(24) %23, i64 noundef 2)
  %25 = load double, ptr %24, align 8
  %26 = call double @llvm.fmuladd.f64(double %22, double %25, double %19)
  ret double %26
}

; Function Attrs: mustprogress nounwind uwtable
define linkonce_odr noundef nonnull align 8 dereferenceable(8) ptr @_ZNK32pxrInternal_v0_24__pxrReserved__7GfVec3dixEm(ptr noundef nonnull align 8 dereferenceable(24) %0, i64 noundef %1) #2 comdat align 2 {
  %3 = alloca ptr, align 8
  %4 = alloca i64, align 8
  store ptr %0, ptr %3, align 8
  store i64 %1, ptr %4, align 8
  %5 = load ptr, ptr %3, align 8
  %6 = getelementptr inbounds nuw %"class.pxrInternal_v0_24__pxrReserved__::GfVec3d", ptr %5, i32 0, i32 0
  %7 = load i64, ptr %4, align 8
  %8 = getelementptr inbounds [3 x double], ptr %6, i64 0, i64 %7
  ret ptr %8
}

; Function Attrs: mustprogress nounwind uwtable
define linkonce_odr noundef double @_ZN32pxrInternal_v0_24__pxrReserved__6GfSqrtEd(double noundef %0) #2 comdat {
  %2 = alloca double, align 8
  store double %0, ptr %2, align 8
  %3 = load double, ptr %2, align 8
  %4 = call double @sqrt(double noundef %3) #6
  ret double %4
}

; Function Attrs: mustprogress uwtable
define linkonce_odr noundef double @_ZNK32pxrInternal_v0_24__pxrReserved__7GfVec3d11GetLengthSqEv(ptr noundef nonnull align 8 dereferenceable(24) %0) #0 comdat align 2 {
  %2 = alloca ptr, align 8
  store ptr %0, ptr %2, align 8
  %3 = load ptr, ptr %2, align 8
  %4 = call noundef double @_ZNK32pxrInternal_v0_24__pxrReserved__7GfVec3dmlERKS0_(ptr noundef nonnull align 8 dereferenceable(24) %3, ptr noundef nonnull align 8 dereferenceable(24) %3)
  ret double %4
}

; Function Attrs: mustprogress nounwind uwtable
define linkonce_odr noundef nonnull align 8 dereferenceable(24) ptr @_ZN32pxrInternal_v0_24__pxrReserved__7GfVec3dpLERKS0_(ptr noundef nonnull align 8 dereferenceable(24) %0, ptr noundef nonnull align 8 dereferenceable(24) %1) #2 comdat align 2 {
  %3 = alloca ptr, align 8
  %4 = alloca ptr, align 8
  store ptr %0, ptr %3, align 8
  store ptr %1, ptr %4, align 8
  %5 = load ptr, ptr %3, align 8
  %6 = load ptr, ptr %4, align 8
  %7 = call noundef nonnull align 8 dereferenceable(8) ptr @_ZNK32pxrInternal_v0_24__pxrReserved__7GfVec3dixEm(ptr noundef nonnull align 8 dereferenceable(24) %6, i64 noundef 0)
  %8 = load double, ptr %7, align 8
  %9 = getelementptr inbounds nuw %"class.pxrInternal_v0_24__pxrReserved__::GfVec3d", ptr %5, i32 0, i32 0
  %10 = getelementptr inbounds [3 x double], ptr %9, i64 0, i64 0
  %11 = load double, ptr %10, align 8
  %12 = fadd double %11, %8
  store double %12, ptr %10, align 8
  %13 = load ptr, ptr %4, align 8
  %14 = call noundef nonnull align 8 dereferenceable(8) ptr @_ZNK32pxrInternal_v0_24__pxrReserved__7GfVec3dixEm(ptr noundef nonnull align 8 dereferenceable(24) %13, i64 noundef 1)
  %15 = load double, ptr %14, align 8
  %16 = getelementptr inbounds nuw %"class.pxrInternal_v0_24__pxrReserved__::GfVec3d", ptr %5, i32 0, i32 0
  %17 = getelementptr inbounds [3 x double], ptr %16, i64 0, i64 1
  %18 = load double, ptr %17, align 8
  %19 = fadd double %18, %15
  store double %19, ptr %17, align 8
  %20 = load ptr, ptr %4, align 8
  %21 = call noundef nonnull align 8 dereferenceable(8) ptr @_ZNK32pxrInternal_v0_24__pxrReserved__7GfVec3dixEm(ptr noundef nonnull align 8 dereferenceable(24) %20, i64 noundef 2)
  %22 = load double, ptr %21, align 8
  %23 = getelementptr inbounds nuw %"class.pxrInternal_v0_24__pxrReserved__::GfVec3d", ptr %5, i32 0, i32 0
  %24 = getelementptr inbounds [3 x double], ptr %23, i64 0, i64 2
  %25 = load double, ptr %24, align 8
  %26 = fadd double %25, %22
  store double %26, ptr %24, align 8
  ret ptr %5
}

; Function Attrs: mustprogress nounwind uwtable
define linkonce_odr noundef nonnull align 8 dereferenceable(24) ptr @_ZN32pxrInternal_v0_24__pxrReserved__7GfVec3dmLEd(ptr noundef nonnull align 8 dereferenceable(24) %0, double noundef %1) #2 comdat align 2 {
  %3 = alloca ptr, align 8
  %4 = alloca double, align 8
  store ptr %0, ptr %3, align 8
  store double %1, ptr %4, align 8
  %5 = load ptr, ptr %3, align 8
  %6 = load double, ptr %4, align 8
  %7 = getelementptr inbounds nuw %"class.pxrInternal_v0_24__pxrReserved__::GfVec3d", ptr %5, i32 0, i32 0
  %8 = getelementptr inbounds [3 x double], ptr %7, i64 0, i64 0
  %9 = load double, ptr %8, align 8
  %10 = fmul double %9, %6
  store double %10, ptr %8, align 8
  %11 = load double, ptr %4, align 8
  %12 = getelementptr inbounds nuw %"class.pxrInternal_v0_24__pxrReserved__::GfVec3d", ptr %5, i32 0, i32 0
  %13 = getelementptr inbounds [3 x double], ptr %12, i64 0, i64 1
  %14 = load double, ptr %13, align 8
  %15 = fmul double %14, %11
  store double %15, ptr %13, align 8
  %16 = load double, ptr %4, align 8
  %17 = getelementptr inbounds nuw %"class.pxrInternal_v0_24__pxrReserved__::GfVec3d", ptr %5, i32 0, i32 0
  %18 = getelementptr inbounds [3 x double], ptr %17, i64 0, i64 2
  %19 = load double, ptr %18, align 8
  %20 = fmul double %19, %16
  store double %20, ptr %18, align 8
  ret ptr %5
}

; Function Attrs: mustprogress uwtable
define linkonce_odr noundef nonnull align 8 dereferenceable(24) ptr @_ZN32pxrInternal_v0_24__pxrReserved__7GfVec3ddVEd(ptr noundef nonnull align 8 dereferenceable(24) %0, double noundef %1) #0 comdat align 2 {
  %3 = alloca ptr, align 8
  %4 = alloca double, align 8
  store ptr %0, ptr %3, align 8
  store double %1, ptr %4, align 8
  %5 = load ptr, ptr %3, align 8
  %6 = load double, ptr %4, align 8
  %7 = fdiv double 1.000000e+00, %6
  %8 = call noundef nonnull align 8 dereferenceable(24) ptr @_ZN32pxrInternal_v0_24__pxrReserved__7GfVec3dmLEd(ptr noundef nonnull align 8 dereferenceable(24) %5, double noundef %7)
  ret ptr %8
}

; Function Attrs: mustprogress uwtable
define linkonce_odr noundef double @_ZNK32pxrInternal_v0_24__pxrReserved__7GfVec3d9GetLengthEv(ptr noundef nonnull align 8 dereferenceable(24) %0) #0 comdat align 2 {
  %2 = alloca ptr, align 8
  store ptr %0, ptr %2, align 8
  %3 = load ptr, ptr %2, align 8
  %4 = call noundef double @_ZNK32pxrInternal_v0_24__pxrReserved__7GfVec3d11GetLengthSqEv(ptr noundef nonnull align 8 dereferenceable(24) %3)
  %5 = call noundef double @_ZN32pxrInternal_v0_24__pxrReserved__6GfSqrtEd(double noundef %4)
  ret double %5
}

; Function Attrs: mustprogress uwtable
define linkonce_odr void @_ZN32pxrInternal_v0_24__pxrReserved__plERKNS_7GfVec3dES2_(ptr dead_on_unwind noalias writable sret(%"class.pxrInternal_v0_24__pxrReserved__::GfVec3d") align 8 %0, ptr noundef nonnull align 8 dereferenceable(24) %1, ptr noundef nonnull align 8 dereferenceable(24) %2) #0 comdat {
  %4 = alloca ptr, align 8
  %5 = alloca ptr, align 8
  %6 = alloca %"class.pxrInternal_v0_24__pxrReserved__::GfVec3d", align 8
  store ptr %1, ptr %4, align 8
  store ptr %2, ptr %5, align 8
  %7 = load ptr, ptr %5, align 8
  %8 = load ptr, ptr %4, align 8
  call void @llvm.memcpy.p0.p0.i64(ptr align 8 %6, ptr align 8 %8, i64 24, i1 false)
  %9 = call noundef nonnull align 8 dereferenceable(24) ptr @_ZN32pxrInternal_v0_24__pxrReserved__7GfVec3dpLERKS0_(ptr noundef nonnull align 8 dereferenceable(24) %6, ptr noundef nonnull align 8 dereferenceable(24) %7)
  call void @llvm.memcpy.p0.p0.i64(ptr align 8 %0, ptr align 8 %9, i64 24, i1 false)
  ret void
}

; Function Attrs: mustprogress nounwind uwtable
define linkonce_odr void @_ZNK32pxrInternal_v0_24__pxrReserved__7GfVec3dmlEd(ptr dead_on_unwind noalias writable sret(%"class.pxrInternal_v0_24__pxrReserved__::GfVec3d") align 8 %0, ptr noundef nonnull align 8 dereferenceable(24) %1, double noundef %2) #2 comdat align 2 {
  %4 = alloca ptr, align 8
  %5 = alloca double, align 8
  %6 = alloca %"class.pxrInternal_v0_24__pxrReserved__::GfVec3d", align 8
  store ptr %1, ptr %4, align 8
  store double %2, ptr %5, align 8
  %7 = load ptr, ptr %4, align 8
  %8 = load double, ptr %5, align 8
  call void @llvm.memcpy.p0.p0.i64(ptr align 8 %6, ptr align 8 %7, i64 24, i1 false)
  %9 = call noundef nonnull align 8 dereferenceable(24) ptr @_ZN32pxrInternal_v0_24__pxrReserved__7GfVec3dmLEd(ptr noundef nonnull align 8 dereferenceable(24) %6, double noundef %8)
  call void @llvm.memcpy.p0.p0.i64(ptr align 8 %0, ptr align 8 %9, i64 24, i1 false)
  ret void
}

; Function Attrs: mustprogress uwtable
define linkonce_odr noundef double @_ZN32pxrInternal_v0_24__pxrReserved__7GfVec3d9NormalizeEd(ptr noundef nonnull align 8 dereferenceable(24) %0, double noundef %1) #0 comdat align 2 {
  %3 = alloca ptr, align 8
  %4 = alloca double, align 8
  %5 = alloca double, align 8
  store ptr %0, ptr %3, align 8
  store double %1, ptr %4, align 8
  %6 = load ptr, ptr %3, align 8
  %7 = call noundef double @_ZNK32pxrInternal_v0_24__pxrReserved__7GfVec3d9GetLengthEv(ptr noundef nonnull align 8 dereferenceable(24) %6)
  store double %7, ptr %5, align 8
  %8 = load double, ptr %5, align 8
  %9 = load double, ptr %4, align 8
  %10 = fcmp ogt double %8, %9
  br i1 %10, label %11, label %13

11:                                               ; preds = %2
  %12 = load double, ptr %5, align 8
  br label %15

13:                                               ; preds = %2
  %14 = load double, ptr %4, align 8
  br label %15

15:                                               ; preds = %13, %11
  %16 = phi double [ %12, %11 ], [ %14, %13 ]
  %17 = call noundef nonnull align 8 dereferenceable(24) ptr @_ZN32pxrInternal_v0_24__pxrReserved__7GfVec3ddVEd(ptr noundef nonnull align 8 dereferenceable(24) %6, double noundef %16)
  %18 = load double, ptr %5, align 8
  ret double %18
}

; Function Attrs: mustprogress uwtable
define linkonce_odr void @_ZNK32pxrInternal_v0_24__pxrReserved__6GfLine8GetPointEd(ptr dead_on_unwind noalias writable sret(%"class.pxrInternal_v0_24__pxrReserved__::GfVec3d") align 8 %0, ptr noundef nonnull align 8 dereferenceable(48) %1, double noundef %2) #0 comdat align 2 {
  %4 = alloca ptr, align 8
  %5 = alloca double, align 8
  %6 = alloca %"class.pxrInternal_v0_24__pxrReserved__::GfVec3d", align 8
  store ptr %1, ptr %4, align 8
  store double %2, ptr %5, align 8
  %7 = load ptr, ptr %4, align 8
  %8 = getelementptr inbounds nuw %"class.pxrInternal_v0_24__pxrReserved__::GfLine", ptr %7, i32 0, i32 0
  %9 = getelementptr inbounds nuw %"class.pxrInternal_v0_24__pxrReserved__::GfLine", ptr %7, i32 0, i32 1
  %10 = load double, ptr %5, align 8
  call void @_ZNK32pxrInternal_v0_24__pxrReserved__7GfVec3dmlEd(ptr dead_on_unwind writable sret(%"class.pxrInternal_v0_24__pxrReserved__::GfVec3d") align 8 %6, ptr noundef nonnull align 8 dereferenceable(24) %9, double noundef %10)
  call void @_ZN32pxrInternal_v0_24__pxrReserved__plERKNS_7GfVec3dES2_(ptr dead_on_unwind writable sret(%"class.pxrInternal_v0_24__pxrReserved__::GfVec3d") align 8 %0, ptr noundef nonnull align 8 dereferenceable(24) %8, ptr noundef nonnull align 8 dereferenceable(24) %6)
  ret void
}

; Function Attrs: mustprogress uwtable
define linkonce_odr noundef double @_ZN32pxrInternal_v0_24__pxrReserved__6GfLine3SetERKNS_7GfVec3dES3_(ptr noundef nonnull align 8 dereferenceable(48) %0, ptr noundef nonnull align 8 dereferenceable(24) %1, ptr noundef nonnull align 8 dereferenceable(24) %2) #0 comdat align 2 {
  %4 = alloca ptr, align 8
  %5 = alloca ptr, align 8
  %6 = alloca ptr, align 8
  store ptr %0, ptr %4, align 8
  store ptr %1, ptr %5, align 8
  store ptr %2, ptr %6, align 8
  %7 = load ptr, ptr %4, align 8
  %8 = load ptr, ptr %5, align 8
  %9 = getelementptr inbounds nuw %"class.pxrInternal_v0_24__pxrReserved__::GfLine", ptr %7, i32 0, i32 0
  call void @llvm.memcpy.p0.p0.i64(ptr align 8 %9, ptr align 8 %8, i64 24, i1 false)
  %10 = load ptr, ptr %6, align 8
  %11 = getelementptr inbounds nuw %"class.pxrInternal_v0_24__pxrReserved__::GfLine", ptr %7, i32 0, i32 1
  call void @llvm.memcpy.p0.p0.i64(ptr align 8 %11, ptr align 8 %10, i64 24, i1 false)
  %12 = getelementptr inbounds nuw %"class.pxrInternal_v0_24__pxrReserved__::GfLine", ptr %7, i32 0, i32 1
  %13 = call noundef double @_ZN32pxrInternal_v0_24__pxrReserved__7GfVec3d9NormalizeEd(ptr noundef nonnull align 8 dereferenceable(24) %12, double noundef 1.000000e-10)
  ret double %13
}

; Function Attrs: mustprogress nounwind uwtable
define linkonce_odr void @_ZN32pxrInternal_v0_24__pxrReserved__6GfLineC2Ev(ptr noundef nonnull align 8 dereferenceable(48) %0) unnamed_addr #2 comdat align 2 {
  %2 = alloca ptr, align 8
  store ptr %0, ptr %2, align 8
  ret void
}

; Function Attrs: mustprogress uwtable
define noundef zeroext i1 @_ZN32pxrInternal_v0_24__pxrReserved__19GfFindClosestPointsERKNS_5GfRayERKNS_9GfLineSegEPNS_7GfVec3dES7_PdS8_(ptr noundef nonnull align 8 dereferenceable(48) %0, ptr noundef nonnull align 8 dereferenceable(56) %1, ptr noundef %2, ptr noundef %3, ptr noundef %4, ptr noundef %5) #0 {
  %7 = alloca i1, align 1
  %8 = alloca ptr, align 8
  %9 = alloca ptr, align 8
  %10 = alloca ptr, align 8
  %11 = alloca ptr, align 8
  %12 = alloca ptr, align 8
  %13 = alloca ptr, align 8
  %14 = alloca %"class.pxrInternal_v0_24__pxrReserved__::GfLine", align 8
  %15 = alloca double, align 8
  %16 = alloca %"class.pxrInternal_v0_24__pxrReserved__::GfVec3d", align 8
  %17 = alloca %"class.pxrInternal_v0_24__pxrReserved__::GfVec3d", align 8
  %18 = alloca double, align 8
  %19 = alloca double, align 8
  %20 = alloca %"class.pxrInternal_v0_24__pxrReserved__::GfVec3d", align 8
  store ptr %0, ptr %8, align 8
  store ptr %1, ptr %9, align 8
  store ptr %2, ptr %10, align 8
  store ptr %3, ptr %11, align 8
  store ptr %4, ptr %12, align 8
  store ptr %5, ptr %13, align 8
  call void @_ZN32pxrInternal_v0_24__pxrReserved__6GfLineC2Ev(ptr noundef nonnull align 8 dereferenceable(48) %14)
  %21 = load ptr, ptr %8, align 8
  %22 = getelementptr inbounds nuw %"class.pxrInternal_v0_24__pxrReserved__::GfRay", ptr %21, i32 0, i32 0
  %23 = load ptr, ptr %8, align 8
  %24 = getelementptr inbounds nuw %"class.pxrInternal_v0_24__pxrReserved__::GfRay", ptr %23, i32 0, i32 1
  %25 = call noundef double @_ZN32pxrInternal_v0_24__pxrReserved__6GfLine3SetERKNS_7GfVec3dES3_(ptr noundef nonnull align 8 dereferenceable(48) %14, ptr noundef nonnull align 8 dereferenceable(24) %22, ptr noundef nonnull align 8 dereferenceable(24) %24)
  store double %25, ptr %15, align 8
  %26 = load ptr, ptr %9, align 8
  %27 = call noundef zeroext i1 @_ZN32pxrInternal_v0_24__pxrReserved__19GfFindClosestPointsERKNS_6GfLineERKNS_9GfLineSegEPNS_7GfVec3dES7_PdS8_(ptr noundef nonnull align 8 dereferenceable(48) %14, ptr noundef nonnull align 8 dereferenceable(56) %26, ptr noundef %16, ptr noundef %17, ptr noundef %18, ptr noundef %19)
  br i1 %27, label %29, label %28

28:                                               ; preds = %6
  store i1 false, ptr %7, align 1
  br label %59

29:                                               ; preds = %6
  %30 = load double, ptr %18, align 8
  %31 = fcmp olt double %30, 0.000000e+00
  br i1 %31, label %32, label %33

32:                                               ; preds = %29
  store double 0.000000e+00, ptr %18, align 8
  br label %33

33:                                               ; preds = %32, %29
  %34 = load ptr, ptr %10, align 8
  %35 = icmp ne ptr %34, null
  br i1 %35, label %36, label %39

36:                                               ; preds = %33
  %37 = load double, ptr %18, align 8
  call void @_ZNK32pxrInternal_v0_24__pxrReserved__6GfLine8GetPointEd(ptr dead_on_unwind writable sret(%"class.pxrInternal_v0_24__pxrReserved__::GfVec3d") align 8 %20, ptr noundef nonnull align 8 dereferenceable(48) %14, double noundef %37)
  %38 = load ptr, ptr %10, align 8
  call void @llvm.memcpy.p0.p0.i64(ptr align 8 %38, ptr align 8 %20, i64 24, i1 false)
  br label %39

39:                                               ; preds = %36, %33
  %40 = load ptr, ptr %11, align 8
  %41 = icmp ne ptr %40, null
  br i1 %41, label %42, label %44

42:                                               ; preds = %39
  %43 = load ptr, ptr %11, align 8
  call void @llvm.memcpy.p0.p0.i64(ptr align 8 %43, ptr align 8 %17, i64 24, i1 false)
  br label %44

44:                                               ; preds = %42, %39
  %45 = load ptr, ptr %12, align 8
  %46 = icmp ne ptr %45, null
  br i1 %46, label %47, label %52

47:                                               ; preds = %44
  %48 = load double, ptr %18, align 8
  %49 = load double, ptr %15, align 8
  %50 = fdiv double %48, %49
  %51 = load ptr, ptr %12, align 8
  store double %50, ptr %51, align 8
  br label %52

52:                                               ; preds = %47, %44
  %53 = load ptr, ptr %13, align 8
  %54 = icmp ne ptr %53, null
  br i1 %54, label %55, label %58

55:                                               ; preds = %52
  %56 = load double, ptr %19, align 8
  %57 = load ptr, ptr %13, align 8
  store double %56, ptr %57, align 8
  br label %58

58:                                               ; preds = %55, %52
  store i1 true, ptr %7, align 1
  br label %59

59:                                               ; preds = %58, %28
  %60 = load i1, ptr %7, align 1
  ret i1 %60
}