; Function Attrs: mustprogress uwtable
define noundef zeroext i1 @_ZN32pxrInternal_v0_24__pxrReserved__19GfFindClosestPointsERKNS_5GfRayERKNS_9GfLineSegEPNS_7GfVec3dES7_PdS8_(ptr nocapture noundef nonnull readonly align 8 dereferenceable(48) %0, ptr noundef nonnull align 8 dereferenceable(56) %1, ptr noundef writeonly %2, ptr noundef writeonly %3, ptr noundef writeonly %4, ptr noundef writeonly %5) local_unnamed_addr #0 {
  %7 = alloca %"class.pxrInternal_v0_24__pxrReserved__::GfLine", align 8
  %8 = alloca %"class.pxrInternal_v0_24__pxrReserved__::GfVec3d", align 8
  %9 = alloca %"class.pxrInternal_v0_24__pxrReserved__::GfVec3d", align 8
  %10 = alloca double, align 8
  %11 = alloca double, align 8
  %12 = getelementptr inbounds nuw i8, ptr %0, i64 24
  call void @llvm.memcpy.p0.p0.i64(ptr noundef nonnull align 8 dereferenceable(24) %7, ptr noundef nonnull align 8 dereferenceable(24) %0, i64 24, i1 false)
  %13 = getelementptr inbounds nuw i8, ptr %7, i64 24
  call void @llvm.memcpy.p0.p0.i64(ptr noundef nonnull align 8 dereferenceable(24) %13, ptr noundef nonnull align 8 dereferenceable(24) %12, i64 24, i1 false)
  %14 = load double, ptr %13, align 8
  %15 = getelementptr inbounds i8, ptr %7, i64 32
  %16 = load double, ptr %15, align 8
  %17 = fmul double %16, %16
  %18 = tail call double @llvm.fmuladd.f64(double %14, double %14, double %17)
  %19 = getelementptr inbounds i8, ptr %7, i64 40
  %20 = load double, ptr %19, align 8
  %21 = tail call noundef double @llvm.fmuladd.f64(double %20, double %20, double %18)
  %sqrt.i.i.i = tail call noundef double @llvm.sqrt.f64(double %21)
  %22 = fcmp ogt double %sqrt.i.i.i, 1.000000e-10
  %23 = select i1 %22, double %sqrt.i.i.i, double 1.000000e-10
  %24 = fdiv double 1.000000e+00, %23
  %25 = fmul double %14, %24
  store double %25, ptr %13, align 8
  %26 = fmul double %16, %24
  store double %26, ptr %15, align 8
  %27 = fmul double %20, %24
  store double %27, ptr %19, align 8
  %28 = call noundef zeroext i1 @_ZN32pxrInternal_v0_24__pxrReserved__19GfFindClosestPointsERKNS_6GfLineERKNS_9GfLineSegEPNS_7GfVec3dES7_PdS8_(ptr noundef nonnull align 8 dereferenceable(48) %7, ptr noundef nonnull align 8 dereferenceable(56) %1, ptr noundef nonnull %8, ptr noundef nonnull %9, ptr noundef nonnull %10, ptr noundef nonnull %11)
  br i1 %28, label %29, label %48

29:                                               ; preds = %6
  %30 = load double, ptr %10, align 8
  %31 = fcmp olt double %30, 0.000000e+00
  %32 = select i1 %31, double 0.000000e+00, double %30
  %.not = icmp eq ptr %2, null
  br i1 %.not, label %40, label %33

33:                                               ; preds = %29
  %.sroa.0.0.copyload.i.i = load double, ptr %13, align 8, !noalias !31
  %.sroa.4.0.copyload.i.i = load double, ptr %15, align 8, !noalias !31
  %.sroa.6.0.copyload.i.i = load double, ptr %19, align 8, !noalias !31
  %34 = fmul double %32, %.sroa.0.0.copyload.i.i
  %35 = fmul double %32, %.sroa.4.0.copyload.i.i
  %36 = fmul double %32, %.sroa.6.0.copyload.i.i
  %.sroa.0.0.copyload.i2.i = load double, ptr %7, align 8, !noalias !36
  %.sroa.4.0..sroa_idx.i3.i = getelementptr inbounds i8, ptr %7, i64 8
  %.sroa.4.0.copyload.i4.i = load double, ptr %.sroa.4.0..sroa_idx.i3.i, align 8, !noalias !36
  %.sroa.6.0..sroa_idx.i5.i = getelementptr inbounds i8, ptr %7, i64 16
  %.sroa.6.0.copyload.i6.i = load double, ptr %.sroa.6.0..sroa_idx.i5.i, align 8, !noalias !36
  %37 = fadd double %34, %.sroa.0.0.copyload.i2.i
  %38 = fadd double %35, %.sroa.4.0.copyload.i4.i
  %39 = fadd double %36, %.sroa.6.0.copyload.i6.i
  store double %37, ptr %2, align 8
  %.sroa.2.0..sroa_idx = getelementptr inbounds i8, ptr %2, i64 8
  store double %38, ptr %.sroa.2.0..sroa_idx, align 8
  %.sroa.3.0..sroa_idx = getelementptr inbounds i8, ptr %2, i64 16
  store double %39, ptr %.sroa.3.0..sroa_idx, align 8
  br label %40

40:                                               ; preds = %33, %29
  %.not17 = icmp eq ptr %3, null
  br i1 %.not17, label %42, label %41

41:                                               ; preds = %40
  call void @llvm.memcpy.p0.p0.i64(ptr noundef nonnull align 8 dereferenceable(24) %3, ptr noundef nonnull align 8 dereferenceable(24) %9, i64 24, i1 false)
  br label %42

42:                                               ; preds = %41, %40
  %.not18 = icmp eq ptr %4, null
  br i1 %.not18, label %45, label %43

43:                                               ; preds = %42
  %44 = fdiv double %32, %sqrt.i.i.i
  store double %44, ptr %4, align 8
  br label %45

45:                                               ; preds = %43, %42
  %.not19 = icmp eq ptr %5, null
  br i1 %.not19, label %48, label %46

46:                                               ; preds = %45
  %47 = load double, ptr %11, align 8
  store double %47, ptr %5, align 8
  br label %48

48:                                               ; preds = %45, %46, %6
  ret i1 %28
}